; Function Attrs: mustprogress nofree norecurse nosync nounwind willreturn memory(argmem: readwrite) uwtable
define void @_ZN32pxrInternal_v0_24__pxrReserved__9GfFrustumC2ERKNS_7GfVec3dERKNS_10GfRotationERKNS_9GfRange2dERKNS_9GfRange1dENS0_14ProjectionTypeEd(ptr nocapture noundef nonnull writeonly align 8 dereferenceable(128) %0, ptr nocapture noundef nonnull readonly align 8 dereferenceable(24) %1, ptr nocapture noundef nonnull readonly align 8 dereferenceable(32) %2, ptr nocapture noundef nonnull readonly align 8 dereferenceable(32) %3, ptr nocapture noundef nonnull readonly align 8 dereferenceable(16) %4, i32 noundef %5, double noundef %6) unnamed_addr #2 align 2 {
  tail call void @llvm.memcpy.p0.p0.i64(ptr noundef nonnull align 8 dereferenceable(24) %0, ptr noundef nonnull align 8 dereferenceable(24) %1, i64 24, i1 false)
  %8 = getelementptr inbounds nuw i8, ptr %0, i64 24
  tail call void @llvm.memcpy.p0.p0.i64(ptr noundef nonnull align 8 dereferenceable(32) %8, ptr noundef nonnull align 8 dereferenceable(32) %2, i64 32, i1 false)
  %9 = getelementptr inbounds nuw i8, ptr %0, i64 56
  tail call void @llvm.memcpy.p0.p0.i64(ptr noundef nonnull align 8 dereferenceable(32) %9, ptr noundef nonnull align 8 dereferenceable(32) %3, i64 32, i1 false)
  %10 = getelementptr inbounds nuw i8, ptr %0, i64 88
  tail call void @llvm.memcpy.p0.p0.i64(ptr noundef nonnull align 8 dereferenceable(16) %10, ptr noundef nonnull align 8 dereferenceable(16) %4, i64 16, i1 false)
  %11 = getelementptr inbounds nuw i8, ptr %0, i64 104
  store double %6, ptr %11, align 8
  %12 = getelementptr inbounds nuw i8, ptr %0, i64 112
  store i32 %5, ptr %12, align 8
  %13 = getelementptr inbounds nuw i8, ptr %0, i64 120
  store ptr null, ptr %13, align 8
  ret void
}